; Function Attrs: nounwind uwtable
define internal i32 @lsarpc_dissect_element_lsa_SetSecObj_sdbuf_(ptr noundef %0, i32 noundef %1, ptr noundef %2, ptr noundef %3, ptr noundef %4, ptr noundef %5) #0 {
  %7 = alloca i32, align 4
  call void @llvm.lifetime.start.p0(i64 4, ptr nonnull %7)
  %8 = getelementptr inbounds nuw i8, ptr %4, i64 28
  %9 = load i32, ptr %8, align 4
  %.not.i = icmp eq i32 %9, 0
  br i1 %.not.i, label %10, label %cnf_dissect_sec_desc_buf.exit

10:                                               ; preds = %6
  %11 = load i32, ptr @hf_lsarpc_sec_desc_buf_len, align 4
  %12 = call i32 @dissect_ndr_uint32(ptr noundef %0, i32 noundef %1, ptr noundef %2, ptr noundef %3, ptr noundef nonnull %4, ptr noundef %5, i32 noundef %11, ptr noundef nonnull %7) #5
  %13 = call i32 @dissect_ndr_pointer(ptr noundef %0, i32 noundef %12, ptr noundef %2, ptr noundef %3, ptr noundef nonnull %4, ptr noundef %5, ptr noundef nonnull @cnf_dissect_sec_desc_buf_, i32 noundef 2, ptr noundef nonnull @.str.868, i32 noundef -1) #5
  br label %cnf_dissect_sec_desc_buf.exit

cnf_dissect_sec_desc_buf.exit:                    ; preds = %6, %10
  %.0.i = phi i32 [ %13, %10 ], [ %1, %6 ]
  call void @llvm.lifetime.end.p0(i64 4, ptr nonnull %7)
  ret i32 %.0.i
}